target datalayout = "e-m:e-p270:32:32-p271:32:32-p272:64:64-i64:64-i128:128-f80:128-n8:16:32:64-S128"
target triple = "x86_64-pc-linux-gnu"

%struct.ReplicationSlotCtlData = type { [1 x %struct.ReplicationSlot] }
%struct.ReplicationSlot = type { i8, i8, i32, i8, i8, i32, i32, %struct.ReplicationSlotPersistentData, %struct.LWLock, %struct.ConditionVariable, i32, i64, i64, i64, i64, i64 }
%struct.ReplicationSlotPersistentData = type { %struct.nameData, i32, i32, i32, i32, i64, i32, i64, i64, i8, %struct.nameData, i8, i8 }
%struct.nameData = type { [64 x i8] }
%struct.LWLock = type { i16, %struct.pg_atomic_uint32, %struct.proclist_head }
%struct.pg_atomic_uint32 = type { i32 }
%struct.proclist_head = type { i32, i32 }
%struct.ConditionVariable = type { i8, %struct.proclist_head }
%union.LWLockPadded = type { %struct.LWLock, [112 x i8] }

@ReplicationSlotCtl = dso_local global ptr null, align 8
@max_replication_slots = dso_local global i32 10, align 4
@.str.6 = private unnamed_addr constant [7 x i8] c"slot.c\00", align 1
@MainLWLockArray = external global ptr, align 8
@__func__.ReplicationSlotsComputeRequiredXmin = private unnamed_addr constant [36 x i8] c"ReplicationSlotsComputeRequiredXmin\00", align 1

; Function Attrs: inlinehint nounwind uwtable
define internal i32 @tas(ptr noundef %0) #7 {
  %2 = alloca ptr, align 8
  %3 = alloca i8, align 1
  store ptr %0, ptr %2, align 8
  call void @llvm.lifetime.start.p0(i64 1, ptr %3) #12
  store i8 1, ptr %3, align 1
  %4 = load i8, ptr %3, align 1
  %5 = load ptr, ptr %2, align 8
  %6 = call i8 asm sideeffect "\09lock\09\09\09\0A\09xchgb\09$0,$1\09\0A", "=q,=*m,0,*m,~{memory},~{cc},~{dirflag},~{fpsr},~{flags}"(ptr elementtype(i8) %5, i8 %4, ptr elementtype(i8) %5) #12, !srcloc !13
  store i8 %6, ptr %3, align 1
  %7 = load i8, ptr %3, align 1
  %8 = zext i8 %7 to i32
  call void @llvm.lifetime.end.p0(i64 1, ptr %3) #12
  ret i32 %8
}

; Function Attrs: nounwind uwtable
define dso_local void @ReplicationSlotsComputeRequiredXmin(i1 noundef zeroext %0) #0 {
  %2 = alloca i8, align 1
  %3 = alloca i32, align 4
  %4 = alloca i32, align 4
  %5 = alloca i32, align 4
  %6 = alloca ptr, align 8
  %7 = alloca i32, align 4
  %8 = alloca i32, align 4
  %9 = alloca i8, align 1
  %10 = alloca i32, align 4
  %11 = zext i1 %0 to i8
  store i8 %11, ptr %2, align 1
  call void @llvm.lifetime.start.p0(i64 4, ptr %3) #12
  call void @llvm.lifetime.start.p0(i64 4, ptr %4) #12
  store i32 0, ptr %4, align 4
  call void @llvm.lifetime.start.p0(i64 4, ptr %5) #12
  store i32 0, ptr %5, align 4
  %12 = load ptr, ptr @MainLWLockArray, align 8
  %13 = getelementptr inbounds %union.LWLockPadded, ptr %12, i64 37
  %14 = call zeroext i1 @LWLockAcquire(ptr noundef %13, i32 noundef 1)
  store i32 0, ptr %3, align 4
  br label %15

15:                                               ; preds = %89, %1
  %16 = load i32, ptr %3, align 4
  %17 = load i32, ptr @max_replication_slots, align 4
  %18 = icmp slt i32 %16, %17
  br i1 %18, label %19, label %92

19:                                               ; preds = %15
  call void @llvm.lifetime.start.p0(i64 8, ptr %6) #12
  %20 = load ptr, ptr @ReplicationSlotCtl, align 8
  %21 = getelementptr inbounds nuw %struct.ReplicationSlotCtlData, ptr %20, i32 0, i32 0
  %22 = load i32, ptr %3, align 4
  %23 = sext i32 %22 to i64
  %24 = getelementptr inbounds [1 x %struct.ReplicationSlot], ptr %21, i64 0, i64 %23
  store ptr %24, ptr %6, align 8
  call void @llvm.lifetime.start.p0(i64 4, ptr %7) #12
  call void @llvm.lifetime.start.p0(i64 4, ptr %8) #12
  call void @llvm.lifetime.start.p0(i64 1, ptr %9) #12
  %25 = load ptr, ptr %6, align 8
  %26 = getelementptr inbounds nuw %struct.ReplicationSlot, ptr %25, i32 0, i32 1
  %27 = load i8, ptr %26, align 1, !range !4, !noundef !5
  %28 = trunc i8 %27 to i1
  br i1 %28, label %30, label %29

29:                                               ; preds = %19
  store i32 4, ptr %10, align 4
  br label %86

30:                                               ; preds = %19
  %31 = load ptr, ptr %6, align 8
  %32 = getelementptr inbounds nuw %struct.ReplicationSlot, ptr %31, i32 0, i32 0
  %33 = call i32 @tas(ptr noundef %32)
  %34 = icmp ne i32 %33, 0
  br i1 %34, label %35, label %39

35:                                               ; preds = %30
  %36 = load ptr, ptr %6, align 8
  %37 = getelementptr inbounds nuw %struct.ReplicationSlot, ptr %36, i32 0, i32 0
  %38 = call i32 @s_lock(ptr noundef %37, ptr noundef @.str.6, i32 noundef 1101, ptr noundef @__func__.ReplicationSlotsComputeRequiredXmin)
  br label %40

39:                                               ; preds = %30
  br label %40

40:                                               ; preds = %39, %35
  %41 = load ptr, ptr %6, align 8
  %42 = getelementptr inbounds nuw %struct.ReplicationSlot, ptr %41, i32 0, i32 5
  %43 = load i32, ptr %42, align 4
  store i32 %43, ptr %7, align 4
  %44 = load ptr, ptr %6, align 8
  %45 = getelementptr inbounds nuw %struct.ReplicationSlot, ptr %44, i32 0, i32 6
  %46 = load i32, ptr %45, align 8
  store i32 %46, ptr %8, align 4
  %47 = load ptr, ptr %6, align 8
  %48 = getelementptr inbounds nuw %struct.ReplicationSlot, ptr %47, i32 0, i32 7
  %49 = getelementptr inbounds nuw %struct.ReplicationSlotPersistentData, ptr %48, i32 0, i32 6
  %50 = load i32, ptr %49, align 8
  %51 = icmp ne i32 %50, 0
  %52 = zext i1 %51 to i8
  store i8 %52, ptr %9, align 1
  br label %53

53:                                               ; preds = %40
  call void asm sideeffect "", "~{memory},~{dirflag},~{fpsr},~{flags}"() #12, !srcloc !19
  %54 = load ptr, ptr %6, align 8
  %55 = getelementptr inbounds nuw %struct.ReplicationSlot, ptr %54, i32 0, i32 0
  store i8 0, ptr %55, align 8
  br label %56

56:                                               ; preds = %53
  br label %57

57:                                               ; preds = %56
  %58 = load i8, ptr %9, align 1, !range !4, !noundef !5
  %59 = trunc i8 %58 to i1
  br i1 %59, label %60, label %61

60:                                               ; preds = %57
  store i32 4, ptr %10, align 4
  br label %86

61:                                               ; preds = %57
  %62 = load i32, ptr %7, align 4
  %63 = icmp ne i32 %62, 0
  br i1 %63, label %64, label %73

64:                                               ; preds = %61
  %65 = load i32, ptr %4, align 4
  %66 = icmp ne i32 %65, 0
  br i1 %66, label %67, label %71

67:                                               ; preds = %64
  %68 = load i32, ptr %7, align 4
  %69 = load i32, ptr %4, align 4
  %70 = call zeroext i1 @TransactionIdPrecedes(i32 noundef %68, i32 noundef %69)
  br i1 %70, label %71, label %73

71:                                               ; preds = %67, %64
  %72 = load i32, ptr %7, align 4
  store i32 %72, ptr %4, align 4
  br label %73

73:                                               ; preds = %71, %67, %61
  %74 = load i32, ptr %8, align 4
  %75 = icmp ne i32 %74, 0
  br i1 %75, label %76, label %85

76:                                               ; preds = %73
  %77 = load i32, ptr %5, align 4
  %78 = icmp ne i32 %77, 0
  br i1 %78, label %79, label %83

79:                                               ; preds = %76
  %80 = load i32, ptr %8, align 4
  %81 = load i32, ptr %5, align 4
  %82 = call zeroext i1 @TransactionIdPrecedes(i32 noundef %80, i32 noundef %81)
  br i1 %82, label %83, label %85

83:                                               ; preds = %79, %76
  %84 = load i32, ptr %8, align 4
  store i32 %84, ptr %5, align 4
  br label %85

85:                                               ; preds = %83, %79, %73
  store i32 0, ptr %10, align 4
  br label %86

86:                                               ; preds = %85, %60, %29
  call void @llvm.lifetime.end.p0(i64 1, ptr %9) #12
  call void @llvm.lifetime.end.p0(i64 4, ptr %8) #12
  call void @llvm.lifetime.end.p0(i64 4, ptr %7) #12
  call void @llvm.lifetime.end.p0(i64 8, ptr %6) #12
  %87 = load i32, ptr %10, align 4
  switch i32 %87, label %99 [
    i32 0, label %88
    i32 4, label %89
  ]

88:                                               ; preds = %86
  br label %89

89:                                               ; preds = %88, %86
  %90 = load i32, ptr %3, align 4
  %91 = add i32 %90, 1
  store i32 %91, ptr %3, align 4
  br label %15, !llvm.loop !20

92:                                               ; preds = %15
  %93 = load ptr, ptr @MainLWLockArray, align 8
  %94 = getelementptr inbounds %union.LWLockPadded, ptr %93, i64 37
  call void @LWLockRelease(ptr noundef %94)
  %95 = load i32, ptr %4, align 4
  %96 = load i32, ptr %5, align 4
  %97 = load i8, ptr %2, align 1, !range !4, !noundef !5
  %98 = trunc i8 %97 to i1
  call void @ProcArraySetReplicationSlotXmin(i32 noundef %95, i32 noundef %96, i1 noundef zeroext %98)
  call void @llvm.lifetime.end.p0(i64 4, ptr %5) #12
  call void @llvm.lifetime.end.p0(i64 4, ptr %4) #12
  call void @llvm.lifetime.end.p0(i64 4, ptr %3) #12
  ret void

99:                                               ; preds = %86
  unreachable
}