; Function Attrs: nounwind uwtable
define dso_local void @ReplicationSlotsComputeRequiredXmin(i1 noundef zeroext %0) local_unnamed_addr #0 {
  %2 = load ptr, ptr @MainLWLockArray, align 8
  %3 = getelementptr inbounds nuw i8, ptr %2, i64 4736
  %4 = tail call zeroext i1 @LWLockAcquire(ptr noundef nonnull %3, i32 noundef 1) #17
  %5 = load i32, ptr @max_replication_slots, align 4
  %6 = icmp sgt i32 %5, 0
  br i1 %6, label %.lr.ph, label %._crit_edge

.lr.ph:                                           ; preds = %1, %33
  %indvars.iv = phi i64 [ %indvars.iv.next, %33 ], [ 0, %1 ]
  %.02335 = phi i32 [ %.1, %33 ], [ 0, %1 ]
  %.02434 = phi i32 [ %.125, %33 ], [ 0, %1 ]
  %7 = load ptr, ptr @ReplicationSlotCtl, align 8
  %8 = getelementptr inbounds nuw [1 x %struct.ReplicationSlot], ptr %7, i64 0, i64 %indvars.iv
  %9 = getelementptr inbounds nuw i8, ptr %8, i64 1
  %10 = load i8, ptr %9, align 1, !range !4, !noundef !5
  %11 = trunc nuw i8 %10 to i1
  br i1 %11, label %12, label %33

12:                                               ; preds = %.lr.ph
  %13 = tail call i8 asm sideeffect "\09lock\09\09\09\0A\09xchgb\09$0,$1\09\0A", "=q,=*m,0,*m,~{memory},~{cc},~{dirflag},~{fpsr},~{flags}"(ptr nonnull elementtype(i8) %8, i8 1, ptr nonnull elementtype(i8) %8) #17, !srcloc !11
  %.not = icmp eq i8 %13, 0
  br i1 %.not, label %16, label %14

14:                                               ; preds = %12
  %15 = tail call i32 @s_lock(ptr noundef nonnull %8, ptr noundef nonnull @.str.6, i32 noundef 1101, ptr noundef nonnull @__func__.ReplicationSlotsComputeRequiredXmin) #17
  br label %16

16:                                               ; preds = %12, %14
  %17 = getelementptr inbounds nuw i8, ptr %8, i64 12
  %18 = load i32, ptr %17, align 4
  %19 = getelementptr inbounds nuw i8, ptr %8, i64 16
  %20 = load i32, ptr %19, align 8
  %21 = getelementptr inbounds nuw i8, ptr %8, i64 112
  %22 = load i32, ptr %21, align 8
  %.not29 = icmp eq i32 %22, 0
  tail call void asm sideeffect "", "~{memory},~{dirflag},~{fpsr},~{flags}"() #17, !srcloc !18
  store i8 0, ptr %8, align 8
  br i1 %.not29, label %23, label %33

23:                                               ; preds = %16
  %.not30 = icmp eq i32 %18, 0
  br i1 %.not30, label %28, label %24

24:                                               ; preds = %23
  %.not31 = icmp eq i32 %.02335, 0
  br i1 %.not31, label %27, label %25

25:                                               ; preds = %24
  %26 = tail call zeroext i1 @TransactionIdPrecedes(i32 noundef %18, i32 noundef %.02335) #17
  br i1 %26, label %27, label %28

27:                                               ; preds = %25, %24
  br label %28

28:                                               ; preds = %27, %25, %23
  %.2 = phi i32 [ %18, %27 ], [ %.02335, %25 ], [ %.02335, %23 ]
  %.not32 = icmp eq i32 %20, 0
  br i1 %.not32, label %33, label %29

29:                                               ; preds = %28
  %.not33 = icmp eq i32 %.02434, 0
  br i1 %.not33, label %32, label %30

30:                                               ; preds = %29
  %31 = tail call zeroext i1 @TransactionIdPrecedes(i32 noundef %20, i32 noundef %.02434) #17
  br i1 %31, label %32, label %33

32:                                               ; preds = %30, %29
  br label %33

33:                                               ; preds = %28, %30, %32, %16, %.lr.ph
  %.125 = phi i32 [ %.02434, %.lr.ph ], [ %.02434, %16 ], [ %20, %32 ], [ %.02434, %30 ], [ %.02434, %28 ]
  %.1 = phi i32 [ %.02335, %.lr.ph ], [ %.02335, %16 ], [ %.2, %32 ], [ %.2, %30 ], [ %.2, %28 ]
  %indvars.iv.next = add nuw nsw i64 %indvars.iv, 1
  %34 = load i32, ptr @max_replication_slots, align 4
  %35 = sext i32 %34 to i64
  %36 = icmp slt i64 %indvars.iv.next, %35
  br i1 %36, label %.lr.ph, label %._crit_edge, !llvm.loop !19

._crit_edge:                                      ; preds = %33, %1
  %.024.lcssa = phi i32 [ 0, %1 ], [ %.125, %33 ]
  %.023.lcssa = phi i32 [ 0, %1 ], [ %.1, %33 ]
  %37 = load ptr, ptr @MainLWLockArray, align 8
  %38 = getelementptr inbounds nuw i8, ptr %37, i64 4736
  tail call void @LWLockRelease(ptr noundef nonnull %38) #17
  tail call void @ProcArraySetReplicationSlotXmin(i32 noundef %.023.lcssa, i32 noundef %.024.lcssa, i1 noundef zeroext %0) #17
  ret void
}